target datalayout = "e-m:e-p270:32:32-p271:32:32-p272:64:64-i64:64-i128:128-f80:128-n8:16:32:64-S128"
target triple = "x86_64-pc-linux-gnu"

%struct._zend_op_array = type { i8, [3 x i8], i32, ptr, ptr, ptr, i32, i32, ptr, ptr, ptr, ptr, i32, ptr, i32, i32, i32, ptr, ptr, ptr, ptr, ptr, i32, i32, ptr, ptr, ptr, i32, i32, i32, i32, ptr, ptr, [6 x ptr] }
%struct._zend_optimizer_ctx = type { ptr, ptr, ptr, i64, i64 }

@.str.14 = private unnamed_addr constant [13 x i8] c"after pass 9\00", align 1
@.str.15 = private unnamed_addr constant [14 x i8] c"after pass 11\00", align 1
@.str.16 = private unnamed_addr constant [14 x i8] c"after pass 13\00", align 1
@.str.17 = private unnamed_addr constant [17 x i8] c"before optimizer\00", align 1
@.str.18 = private unnamed_addr constant [13 x i8] c"after pass 1\00", align 1
@.str.19 = private unnamed_addr constant [13 x i8] c"after pass 3\00", align 1
@.str.20 = private unnamed_addr constant [13 x i8] c"after pass 4\00", align 1
@.str.21 = private unnamed_addr constant [13 x i8] c"after pass 5\00", align 1
@.str.22 = private unnamed_addr constant [13 x i8] c"after pass 6\00", align 1
@.str.23 = private unnamed_addr constant [14 x i8] c"after pass 10\00", align 1
@.str.24 = private unnamed_addr constant [16 x i8] c"after optimizer\00", align 1

; Function Attrs: nounwind uwtable
define internal void @zend_optimize(ptr noundef %0, ptr noundef %1) #0 {
  %3 = alloca ptr, align 8
  %4 = alloca ptr, align 8
  store ptr %0, ptr %3, align 8, !tbaa !98
  store ptr %1, ptr %4, align 8, !tbaa !4
  %5 = load ptr, ptr %3, align 8, !tbaa !98
  %6 = getelementptr inbounds nuw %struct._zend_op_array, ptr %5, i32 0, i32 0
  %7 = load i8, ptr %6, align 8, !tbaa !174
  %8 = zext i8 %7 to i32
  %9 = icmp eq i32 %8, 4
  br i1 %9, label %10, label %11

10:                                               ; preds = %2
  br label %222

11:                                               ; preds = %2
  %12 = load ptr, ptr %4, align 8, !tbaa !4
  %13 = getelementptr inbounds nuw %struct._zend_optimizer_ctx, ptr %12, i32 0, i32 4
  %14 = load i64, ptr %13, align 8, !tbaa !182
  %15 = and i64 %14, 65536
  %16 = icmp ne i64 %15, 0
  br i1 %16, label %17, label %19

17:                                               ; preds = %11
  %18 = load ptr, ptr %3, align 8, !tbaa !98
  call void @zend_dump_op_array(ptr noundef %18, i32 noundef 16, ptr noundef @.str.17, ptr noundef null)
  br label %19

19:                                               ; preds = %17, %11
  %20 = load ptr, ptr %4, align 8, !tbaa !4
  %21 = getelementptr inbounds nuw %struct._zend_optimizer_ctx, ptr %20, i32 0, i32 3
  %22 = load i64, ptr %21, align 8, !tbaa !181
  %23 = and i64 1, %22
  %24 = icmp ne i64 %23, 0
  br i1 %24, label %25, label %36

25:                                               ; preds = %19
  %26 = load ptr, ptr %3, align 8, !tbaa !98
  %27 = load ptr, ptr %4, align 8, !tbaa !4
  call void @zend_optimizer_pass1(ptr noundef %26, ptr noundef %27)
  %28 = load ptr, ptr %4, align 8, !tbaa !4
  %29 = getelementptr inbounds nuw %struct._zend_optimizer_ctx, ptr %28, i32 0, i32 4
  %30 = load i64, ptr %29, align 8, !tbaa !182
  %31 = and i64 %30, 1
  %32 = icmp ne i64 %31, 0
  br i1 %32, label %33, label %35

33:                                               ; preds = %25
  %34 = load ptr, ptr %3, align 8, !tbaa !98
  call void @zend_dump_op_array(ptr noundef %34, i32 noundef 0, ptr noundef @.str.18, ptr noundef null)
  br label %35

35:                                               ; preds = %33, %25
  br label %36

36:                                               ; preds = %35, %19
  %37 = load ptr, ptr %4, align 8, !tbaa !4
  %38 = getelementptr inbounds nuw %struct._zend_optimizer_ctx, ptr %37, i32 0, i32 3
  %39 = load i64, ptr %38, align 8, !tbaa !181
  %40 = and i64 4, %39
  %41 = icmp ne i64 %40, 0
  br i1 %41, label %42, label %53

42:                                               ; preds = %36
  %43 = load ptr, ptr %3, align 8, !tbaa !98
  %44 = load ptr, ptr %4, align 8, !tbaa !4
  call void @zend_optimizer_pass3(ptr noundef %43, ptr noundef %44)
  %45 = load ptr, ptr %4, align 8, !tbaa !4
  %46 = getelementptr inbounds nuw %struct._zend_optimizer_ctx, ptr %45, i32 0, i32 4
  %47 = load i64, ptr %46, align 8, !tbaa !182
  %48 = and i64 %47, 4
  %49 = icmp ne i64 %48, 0
  br i1 %49, label %50, label %52

50:                                               ; preds = %42
  %51 = load ptr, ptr %3, align 8, !tbaa !98
  call void @zend_dump_op_array(ptr noundef %51, i32 noundef 0, ptr noundef @.str.19, ptr noundef null)
  br label %52

52:                                               ; preds = %50, %42
  br label %53

53:                                               ; preds = %52, %36
  %54 = load ptr, ptr %4, align 8, !tbaa !4
  %55 = getelementptr inbounds nuw %struct._zend_optimizer_ctx, ptr %54, i32 0, i32 3
  %56 = load i64, ptr %55, align 8, !tbaa !181
  %57 = and i64 8, %56
  %58 = icmp ne i64 %57, 0
  br i1 %58, label %59, label %70

59:                                               ; preds = %53
  %60 = load ptr, ptr %3, align 8, !tbaa !98
  %61 = load ptr, ptr %4, align 8, !tbaa !4
  call void @zend_optimize_func_calls(ptr noundef %60, ptr noundef %61)
  %62 = load ptr, ptr %4, align 8, !tbaa !4
  %63 = getelementptr inbounds nuw %struct._zend_optimizer_ctx, ptr %62, i32 0, i32 4
  %64 = load i64, ptr %63, align 8, !tbaa !182
  %65 = and i64 %64, 8
  %66 = icmp ne i64 %65, 0
  br i1 %66, label %67, label %69

67:                                               ; preds = %59
  %68 = load ptr, ptr %3, align 8, !tbaa !98
  call void @zend_dump_op_array(ptr noundef %68, i32 noundef 0, ptr noundef @.str.20, ptr noundef null)
  br label %69

69:                                               ; preds = %67, %59
  br label %70

70:                                               ; preds = %69, %53
  %71 = load ptr, ptr %4, align 8, !tbaa !4
  %72 = getelementptr inbounds nuw %struct._zend_optimizer_ctx, ptr %71, i32 0, i32 3
  %73 = load i64, ptr %72, align 8, !tbaa !181
  %74 = and i64 16, %73
  %75 = icmp ne i64 %74, 0
  br i1 %75, label %76, label %87

76:                                               ; preds = %70
  %77 = load ptr, ptr %3, align 8, !tbaa !98
  %78 = load ptr, ptr %4, align 8, !tbaa !4
  call void @zend_optimize_cfg(ptr noundef %77, ptr noundef %78)
  %79 = load ptr, ptr %4, align 8, !tbaa !4
  %80 = getelementptr inbounds nuw %struct._zend_optimizer_ctx, ptr %79, i32 0, i32 4
  %81 = load i64, ptr %80, align 8, !tbaa !182
  %82 = and i64 %81, 16
  %83 = icmp ne i64 %82, 0
  br i1 %83, label %84, label %86

84:                                               ; preds = %76
  %85 = load ptr, ptr %3, align 8, !tbaa !98
  call void @zend_dump_op_array(ptr noundef %85, i32 noundef 0, ptr noundef @.str.21, ptr noundef null)
  br label %86

86:                                               ; preds = %84, %76
  br label %87

87:                                               ; preds = %86, %70
  %88 = load ptr, ptr %4, align 8, !tbaa !4
  %89 = getelementptr inbounds nuw %struct._zend_optimizer_ctx, ptr %88, i32 0, i32 3
  %90 = load i64, ptr %89, align 8, !tbaa !181
  %91 = and i64 32, %90
  %92 = icmp ne i64 %91, 0
  br i1 %92, label %93, label %110

93:                                               ; preds = %87
  %94 = load ptr, ptr %4, align 8, !tbaa !4
  %95 = getelementptr inbounds nuw %struct._zend_optimizer_ctx, ptr %94, i32 0, i32 3
  %96 = load i64, ptr %95, align 8, !tbaa !181
  %97 = and i64 64, %96
  %98 = icmp ne i64 %97, 0
  br i1 %98, label %110, label %99

99:                                               ; preds = %93
  %100 = load ptr, ptr %3, align 8, !tbaa !98
  %101 = load ptr, ptr %4, align 8, !tbaa !4
  call void @zend_optimize_dfa(ptr noundef %100, ptr noundef %101)
  %102 = load ptr, ptr %4, align 8, !tbaa !4
  %103 = getelementptr inbounds nuw %struct._zend_optimizer_ctx, ptr %102, i32 0, i32 4
  %104 = load i64, ptr %103, align 8, !tbaa !182
  %105 = and i64 %104, 32
  %106 = icmp ne i64 %105, 0
  br i1 %106, label %107, label %109

107:                                              ; preds = %99
  %108 = load ptr, ptr %3, align 8, !tbaa !98
  call void @zend_dump_op_array(ptr noundef %108, i32 noundef 0, ptr noundef @.str.22, ptr noundef null)
  br label %109

109:                                              ; preds = %107, %99
  br label %110

110:                                              ; preds = %109, %93, %87
  %111 = load ptr, ptr %4, align 8, !tbaa !4
  %112 = getelementptr inbounds nuw %struct._zend_optimizer_ctx, ptr %111, i32 0, i32 3
  %113 = load i64, ptr %112, align 8, !tbaa !181
  %114 = and i64 256, %113
  %115 = icmp ne i64 %114, 0
  br i1 %115, label %116, label %133

116:                                              ; preds = %110
  %117 = load ptr, ptr %4, align 8, !tbaa !4
  %118 = getelementptr inbounds nuw %struct._zend_optimizer_ctx, ptr %117, i32 0, i32 3
  %119 = load i64, ptr %118, align 8, !tbaa !181
  %120 = and i64 64, %119
  %121 = icmp ne i64 %120, 0
  br i1 %121, label %133, label %122

122:                                              ; preds = %116
  %123 = load ptr, ptr %3, align 8, !tbaa !98
  %124 = load ptr, ptr %4, align 8, !tbaa !4
  call void @zend_optimize_temporary_variables(ptr noundef %123, ptr noundef %124)
  %125 = load ptr, ptr %4, align 8, !tbaa !4
  %126 = getelementptr inbounds nuw %struct._zend_optimizer_ctx, ptr %125, i32 0, i32 4
  %127 = load i64, ptr %126, align 8, !tbaa !182
  %128 = and i64 %127, 256
  %129 = icmp ne i64 %128, 0
  br i1 %129, label %130, label %132

130:                                              ; preds = %122
  %131 = load ptr, ptr %3, align 8, !tbaa !98
  call void @zend_dump_op_array(ptr noundef %131, i32 noundef 0, ptr noundef @.str.14, ptr noundef null)
  br label %132

132:                                              ; preds = %130, %122
  br label %133

133:                                              ; preds = %132, %116, %110
  %134 = load ptr, ptr %4, align 8, !tbaa !4
  %135 = getelementptr inbounds nuw %struct._zend_optimizer_ctx, ptr %134, i32 0, i32 3
  %136 = load i64, ptr %135, align 8, !tbaa !181
  %137 = and i64 528, %136
  %138 = icmp eq i64 %137, 512
  br i1 %138, label %139, label %150

139:                                              ; preds = %133
  %140 = load ptr, ptr %3, align 8, !tbaa !98
  %141 = load ptr, ptr %4, align 8, !tbaa !4
  call void @zend_optimizer_nop_removal(ptr noundef %140, ptr noundef %141)
  %142 = load ptr, ptr %4, align 8, !tbaa !4
  %143 = getelementptr inbounds nuw %struct._zend_optimizer_ctx, ptr %142, i32 0, i32 4
  %144 = load i64, ptr %143, align 8, !tbaa !182
  %145 = and i64 %144, 512
  %146 = icmp ne i64 %145, 0
  br i1 %146, label %147, label %149

147:                                              ; preds = %139
  %148 = load ptr, ptr %3, align 8, !tbaa !98
  call void @zend_dump_op_array(ptr noundef %148, i32 noundef 0, ptr noundef @.str.23, ptr noundef null)
  br label %149

149:                                              ; preds = %147, %139
  br label %150

150:                                              ; preds = %149, %133
  %151 = load ptr, ptr %4, align 8, !tbaa !4
  %152 = getelementptr inbounds nuw %struct._zend_optimizer_ctx, ptr %151, i32 0, i32 3
  %153 = load i64, ptr %152, align 8, !tbaa !181
  %154 = and i64 1024, %153
  %155 = icmp ne i64 %154, 0
  br i1 %155, label %156, label %179

156:                                              ; preds = %150
  %157 = load ptr, ptr %4, align 8, !tbaa !4
  %158 = getelementptr inbounds nuw %struct._zend_optimizer_ctx, ptr %157, i32 0, i32 3
  %159 = load i64, ptr %158, align 8, !tbaa !181
  %160 = and i64 32, %159
  %161 = icmp ne i64 %160, 0
  br i1 %161, label %162, label %168

162:                                              ; preds = %156
  %163 = load ptr, ptr %4, align 8, !tbaa !4
  %164 = getelementptr inbounds nuw %struct._zend_optimizer_ctx, ptr %163, i32 0, i32 3
  %165 = load i64, ptr %164, align 8, !tbaa !181
  %166 = and i64 64, %165
  %167 = icmp ne i64 %166, 0
  br i1 %167, label %179, label %168

168:                                              ; preds = %162, %156
  %169 = load ptr, ptr %3, align 8, !tbaa !98
  %170 = load ptr, ptr %4, align 8, !tbaa !4
  call void @zend_optimizer_compact_literals(ptr noundef %169, ptr noundef %170)
  %171 = load ptr, ptr %4, align 8, !tbaa !4
  %172 = getelementptr inbounds nuw %struct._zend_optimizer_ctx, ptr %171, i32 0, i32 4
  %173 = load i64, ptr %172, align 8, !tbaa !182
  %174 = and i64 %173, 1024
  %175 = icmp ne i64 %174, 0
  br i1 %175, label %176, label %178

176:                                              ; preds = %168
  %177 = load ptr, ptr %3, align 8, !tbaa !98
  call void @zend_dump_op_array(ptr noundef %177, i32 noundef 0, ptr noundef @.str.15, ptr noundef null)
  br label %178

178:                                              ; preds = %176, %168
  br label %179

179:                                              ; preds = %178, %162, %150
  %180 = load ptr, ptr %4, align 8, !tbaa !4
  %181 = getelementptr inbounds nuw %struct._zend_optimizer_ctx, ptr %180, i32 0, i32 3
  %182 = load i64, ptr %181, align 8, !tbaa !181
  %183 = and i64 4096, %182
  %184 = icmp ne i64 %183, 0
  br i1 %184, label %185, label %207

185:                                              ; preds = %179
  %186 = load ptr, ptr %4, align 8, !tbaa !4
  %187 = getelementptr inbounds nuw %struct._zend_optimizer_ctx, ptr %186, i32 0, i32 3
  %188 = load i64, ptr %187, align 8, !tbaa !181
  %189 = and i64 32, %188
  %190 = icmp ne i64 %189, 0
  br i1 %190, label %191, label %197

191:                                              ; preds = %185
  %192 = load ptr, ptr %4, align 8, !tbaa !4
  %193 = getelementptr inbounds nuw %struct._zend_optimizer_ctx, ptr %192, i32 0, i32 3
  %194 = load i64, ptr %193, align 8, !tbaa !181
  %195 = and i64 64, %194
  %196 = icmp ne i64 %195, 0
  br i1 %196, label %207, label %197

197:                                              ; preds = %191, %185
  %198 = load ptr, ptr %3, align 8, !tbaa !98
  call void @zend_optimizer_compact_vars(ptr noundef %198)
  %199 = load ptr, ptr %4, align 8, !tbaa !4
  %200 = getelementptr inbounds nuw %struct._zend_optimizer_ctx, ptr %199, i32 0, i32 4
  %201 = load i64, ptr %200, align 8, !tbaa !182
  %202 = and i64 %201, 4096
  %203 = icmp ne i64 %202, 0
  br i1 %203, label %204, label %206

204:                                              ; preds = %197
  %205 = load ptr, ptr %3, align 8, !tbaa !98
  call void @zend_dump_op_array(ptr noundef %205, i32 noundef 0, ptr noundef @.str.16, ptr noundef null)
  br label %206

206:                                              ; preds = %204, %197
  br label %207

207:                                              ; preds = %206, %191, %179
  %208 = load ptr, ptr %4, align 8, !tbaa !4
  %209 = getelementptr inbounds nuw %struct._zend_optimizer_ctx, ptr %208, i32 0, i32 3
  %210 = load i64, ptr %209, align 8, !tbaa !181
  %211 = and i64 64, %210
  %212 = icmp ne i64 %211, 0
  br i1 %212, label %213, label %214

213:                                              ; preds = %207
  br label %222

214:                                              ; preds = %207
  %215 = load ptr, ptr %4, align 8, !tbaa !4
  %216 = getelementptr inbounds nuw %struct._zend_optimizer_ctx, ptr %215, i32 0, i32 4
  %217 = load i64, ptr %216, align 8, !tbaa !182
  %218 = and i64 %217, 131072
  %219 = icmp ne i64 %218, 0
  br i1 %219, label %220, label %222

220:                                              ; preds = %214
  %221 = load ptr, ptr %3, align 8, !tbaa !98
  call void @zend_dump_op_array(ptr noundef %221, i32 noundef 0, ptr noundef @.str.24, ptr noundef null)
  br label %222

222:                                              ; preds = %10, %213, %220, %214
  ret void
}