; Function Attrs: nounwind uwtable
define internal fastcc void @zend_optimize(ptr noundef %0, ptr noundef %1) unnamed_addr #0 {
  %3 = load i8, ptr %0, align 8, !tbaa !147
  %4 = icmp eq i8 %3, 4
  br i1 %4, label %84, label %5

5:                                                ; preds = %2
  %6 = getelementptr inbounds nuw i8, ptr %1, i64 32
  %7 = load i64, ptr %6, align 8, !tbaa !155
  %8 = and i64 %7, 65536
  %.not = icmp eq i64 %8, 0
  br i1 %.not, label %10, label %9

9:                                                ; preds = %5
  tail call void @zend_dump_op_array(ptr noundef nonnull %0, i32 noundef 16, ptr noundef nonnull @.str.17, ptr noundef null) #20
  br label %10

10:                                               ; preds = %9, %5
  %11 = getelementptr inbounds nuw i8, ptr %1, i64 24
  %12 = load i64, ptr %11, align 8, !tbaa !154
  %13 = and i64 %12, 1
  %.not56 = icmp eq i64 %13, 0
  br i1 %.not56, label %18, label %14

14:                                               ; preds = %10
  tail call void @zend_optimizer_pass1(ptr noundef nonnull %0, ptr noundef nonnull %1) #20
  %15 = load i64, ptr %6, align 8, !tbaa !155
  %16 = and i64 %15, 1
  %.not57 = icmp eq i64 %16, 0
  br i1 %.not57, label %18, label %17

17:                                               ; preds = %14
  tail call void @zend_dump_op_array(ptr noundef nonnull %0, i32 noundef 0, ptr noundef nonnull @.str.18, ptr noundef null) #20
  br label %18

18:                                               ; preds = %14, %17, %10
  %19 = load i64, ptr %11, align 8, !tbaa !154
  %20 = and i64 %19, 4
  %.not58 = icmp eq i64 %20, 0
  br i1 %.not58, label %25, label %21

21:                                               ; preds = %18
  tail call void @zend_optimizer_pass3(ptr noundef nonnull %0, ptr noundef nonnull %1) #20
  %22 = load i64, ptr %6, align 8, !tbaa !155
  %23 = and i64 %22, 4
  %.not59 = icmp eq i64 %23, 0
  br i1 %.not59, label %25, label %24

24:                                               ; preds = %21
  tail call void @zend_dump_op_array(ptr noundef nonnull %0, i32 noundef 0, ptr noundef nonnull @.str.19, ptr noundef null) #20
  br label %25

25:                                               ; preds = %21, %24, %18
  %26 = load i64, ptr %11, align 8, !tbaa !154
  %27 = and i64 %26, 8
  %.not60 = icmp eq i64 %27, 0
  br i1 %.not60, label %32, label %28

28:                                               ; preds = %25
  tail call void @zend_optimize_func_calls(ptr noundef nonnull %0, ptr noundef nonnull %1) #20
  %29 = load i64, ptr %6, align 8, !tbaa !155
  %30 = and i64 %29, 8
  %.not61 = icmp eq i64 %30, 0
  br i1 %.not61, label %32, label %31

31:                                               ; preds = %28
  tail call void @zend_dump_op_array(ptr noundef nonnull %0, i32 noundef 0, ptr noundef nonnull @.str.20, ptr noundef null) #20
  br label %32

32:                                               ; preds = %28, %31, %25
  %33 = load i64, ptr %11, align 8, !tbaa !154
  %34 = and i64 %33, 16
  %.not62 = icmp eq i64 %34, 0
  br i1 %.not62, label %39, label %35

35:                                               ; preds = %32
  tail call void @zend_optimize_cfg(ptr noundef nonnull %0, ptr noundef nonnull %1) #20
  %36 = load i64, ptr %6, align 8, !tbaa !155
  %37 = and i64 %36, 16
  %.not63 = icmp eq i64 %37, 0
  br i1 %.not63, label %39, label %38

38:                                               ; preds = %35
  tail call void @zend_dump_op_array(ptr noundef nonnull %0, i32 noundef 0, ptr noundef nonnull @.str.21, ptr noundef null) #20
  br label %39

39:                                               ; preds = %35, %38, %32
  %40 = load i64, ptr %11, align 8, !tbaa !154
  %41 = and i64 %40, 96
  %or.cond = icmp eq i64 %41, 32
  br i1 %or.cond, label %42, label %46

42:                                               ; preds = %39
  tail call void @zend_optimize_dfa(ptr noundef nonnull %0, ptr noundef nonnull %1) #20
  %43 = load i64, ptr %6, align 8, !tbaa !155
  %44 = and i64 %43, 32
  %.not66 = icmp eq i64 %44, 0
  br i1 %.not66, label %46, label %45

45:                                               ; preds = %42
  tail call void @zend_dump_op_array(ptr noundef nonnull %0, i32 noundef 0, ptr noundef nonnull @.str.22, ptr noundef null) #20
  br label %46

46:                                               ; preds = %42, %45, %39
  %47 = load i64, ptr %11, align 8, !tbaa !154
  %48 = and i64 %47, 320
  %or.cond81 = icmp eq i64 %48, 256
  br i1 %or.cond81, label %49, label %53

49:                                               ; preds = %46
  tail call void @zend_optimize_temporary_variables(ptr noundef nonnull %0, ptr noundef nonnull %1) #20
  %50 = load i64, ptr %6, align 8, !tbaa !155
  %51 = and i64 %50, 256
  %.not69 = icmp eq i64 %51, 0
  br i1 %.not69, label %53, label %52

52:                                               ; preds = %49
  tail call void @zend_dump_op_array(ptr noundef nonnull %0, i32 noundef 0, ptr noundef nonnull @.str.14, ptr noundef null) #20
  br label %53

53:                                               ; preds = %49, %52, %46
  %54 = load i64, ptr %11, align 8, !tbaa !154
  %55 = and i64 %54, 528
  %56 = icmp eq i64 %55, 512
  br i1 %56, label %57, label %61

57:                                               ; preds = %53
  tail call void @zend_optimizer_nop_removal(ptr noundef nonnull %0, ptr noundef nonnull %1) #20
  %58 = load i64, ptr %6, align 8, !tbaa !155
  %59 = and i64 %58, 512
  %.not70 = icmp eq i64 %59, 0
  br i1 %.not70, label %61, label %60

60:                                               ; preds = %57
  tail call void @zend_dump_op_array(ptr noundef nonnull %0, i32 noundef 0, ptr noundef nonnull @.str.23, ptr noundef null) #20
  br label %61

61:                                               ; preds = %57, %60, %53
  %62 = load i64, ptr %11, align 8, !tbaa !154
  %63 = and i64 %62, 1024
  %.not71 = icmp eq i64 %63, 0
  %64 = and i64 %62, 96
  %or.cond82.not = icmp eq i64 %64, 96
  %or.cond84 = or i1 %.not71, %or.cond82.not
  br i1 %or.cond84, label %69, label %65

65:                                               ; preds = %61
  tail call void @zend_optimizer_compact_literals(ptr noundef nonnull %0, ptr noundef nonnull %1) #20
  %66 = load i64, ptr %6, align 8, !tbaa !155
  %67 = and i64 %66, 1024
  %.not74 = icmp eq i64 %67, 0
  br i1 %.not74, label %69, label %68

68:                                               ; preds = %65
  tail call void @zend_dump_op_array(ptr noundef nonnull %0, i32 noundef 0, ptr noundef nonnull @.str.15, ptr noundef null) #20
  br label %69

69:                                               ; preds = %65, %68, %61
  %70 = load i64, ptr %11, align 8, !tbaa !154
  %71 = and i64 %70, 4096
  %.not75 = icmp eq i64 %71, 0
  %72 = and i64 %70, 96
  %or.cond83.not = icmp eq i64 %72, 96
  %or.cond85 = or i1 %.not75, %or.cond83.not
  br i1 %or.cond85, label %77, label %73

73:                                               ; preds = %69
  tail call void @zend_optimizer_compact_vars(ptr noundef nonnull %0) #20
  %74 = load i64, ptr %6, align 8, !tbaa !155
  %75 = and i64 %74, 4096
  %.not78 = icmp eq i64 %75, 0
  br i1 %.not78, label %77, label %76

76:                                               ; preds = %73
  tail call void @zend_dump_op_array(ptr noundef nonnull %0, i32 noundef 0, ptr noundef nonnull @.str.16, ptr noundef null) #20
  br label %77

77:                                               ; preds = %73, %76, %69
  %78 = load i64, ptr %11, align 8, !tbaa !154
  %79 = and i64 %78, 64
  %.not79 = icmp eq i64 %79, 0
  br i1 %.not79, label %80, label %84

80:                                               ; preds = %77
  %81 = load i64, ptr %6, align 8, !tbaa !155
  %82 = and i64 %81, 131072
  %.not80 = icmp eq i64 %82, 0
  br i1 %.not80, label %84, label %83

83:                                               ; preds = %80
  tail call void @zend_dump_op_array(ptr noundef nonnull %0, i32 noundef 0, ptr noundef nonnull @.str.24, ptr noundef null) #20
  br label %84

84:                                               ; preds = %77, %2, %83, %80
  ret void
}